target datalayout = "e-m:e-p270:32:32-p271:32:32-p272:64:64-i64:64-i128:128-f80:128-n8:16:32:64-S128"
target triple = "x86_64-pc-linux-gnu"

; Function Attrs: nounwind uwtable
define void @Abc_MergeSortCost2Reverse(ptr noundef %0, i32 noundef %1, ptr noundef %2) #0 {
  %4 = alloca ptr, align 8
  %5 = alloca i32, align 4
  %6 = alloca ptr, align 8
  %7 = alloca ptr, align 8
  store ptr %0, ptr %4, align 8
  store i32 %1, ptr %5, align 4
  store ptr %2, ptr %6, align 8
  %8 = load i32, ptr %5, align 4
  %9 = icmp slt i32 %8, 2
  br i1 %9, label %10, label %11

10:                                               ; preds = %3
  br label %24

11:                                               ; preds = %3
  %12 = load i32, ptr %5, align 4
  %13 = sext i32 %12 to i64
  %14 = mul i64 4, %13
  %15 = call noalias ptr @malloc(i64 noundef %14) #8
  store ptr %15, ptr %7, align 8
  %16 = load ptr, ptr %4, align 8
  %17 = load ptr, ptr %4, align 8
  %18 = load i32, ptr %5, align 4
  %19 = sext i32 %18 to i64
  %20 = getelementptr inbounds i32, ptr %17, i64 %19
  %21 = load ptr, ptr %7, align 8
  %22 = load ptr, ptr %6, align 8
  call void @Abc_SortCost2Reverse_rec(ptr noundef %16, ptr noundef %20, ptr noundef %21, ptr noundef %22)
  %23 = load ptr, ptr %7, align 8
  call void @free(ptr noundef %23) #9
  br label %24

24:                                               ; preds = %11, %10
  ret void
}